target datalayout = "e-m:e-p270:32:32-p271:32:32-p272:64:64-i64:64-i128:128-f80:128-n8:16:32:64-S128"
target triple = "x86_64-pc-linux-gnu"

%struct.ggml_backend_buffer_type = type { %struct.ggml_backend_buffer_type_i, ptr, ptr }
%struct.ggml_backend_buffer_type_i = type { ptr, ptr, ptr, ptr, ptr, ptr }

@_ZZ36ggml_backend_cpu_aarch64_buffer_typevE36ggml_backend_cpu_buffer_type_aarch64 = internal global %struct.ggml_backend_buffer_type zeroinitializer, align 8
@_ZGVZ36ggml_backend_cpu_aarch64_buffer_typevE36ggml_backend_cpu_buffer_type_aarch64 = internal global i64 0, align 8

; Function Attrs: inlinehint mustprogress nounwind uwtable
define linkonce_odr void @_ZN4ggml3cpu17extra_buffer_typeC2Ev(ptr noundef nonnull align 8 dereferenceable(8) %0) unnamed_addr #6 comdat align 2 {
  %2 = alloca ptr, align 8
  store ptr %0, ptr %2, align 8, !tbaa !264
  %3 = load ptr, ptr %2, align 8
  store ptr getelementptr inbounds inrange(-16, 32) ({ [6 x ptr] }, ptr @_ZTVN4ggml3cpu17extra_buffer_typeE, i32 0, i32 0, i32 2), ptr %3, align 8, !tbaa !259
  ret void
}

; Function Attrs: inlinehint mustprogress nounwind uwtable
define linkonce_odr void @_ZN4ggml3cpu7aarch6417extra_buffer_typeC2Ev(ptr noundef nonnull align 8 dereferenceable(8) %0) unnamed_addr #6 comdat align 2 {
  %2 = alloca ptr, align 8
  store ptr %0, ptr %2, align 8, !tbaa !257
  %3 = load ptr, ptr %2, align 8
  call void @_ZN4ggml3cpu17extra_buffer_typeC2Ev(ptr noundef nonnull align 8 dereferenceable(8) %3) #23
  store ptr getelementptr inbounds inrange(-16, 32) ({ [6 x ptr] }, ptr @_ZTVN4ggml3cpu7aarch6417extra_buffer_typeE, i32 0, i32 0, i32 2), ptr %3, align 8, !tbaa !259
  ret void
}

; Function Attrs: mustprogress uwtable
define noundef ptr @_Z36ggml_backend_cpu_aarch64_buffer_typev() #0 personality ptr @__gxx_personality_v0 {
  %1 = alloca ptr, align 8
  %2 = alloca i32, align 4
  %3 = load atomic i8, ptr @_ZGVZ36ggml_backend_cpu_aarch64_buffer_typevE36ggml_backend_cpu_buffer_type_aarch64 acquire, align 8
  %4 = icmp eq i8 %3, 0
  br i1 %4, label %5, label %15, !prof !234

5:                                                ; preds = %0
  %6 = call i32 @__cxa_guard_acquire(ptr @_ZGVZ36ggml_backend_cpu_aarch64_buffer_typevE36ggml_backend_cpu_buffer_type_aarch64) #23
  %7 = icmp ne i32 %6, 0
  br i1 %7, label %8, label %15

8:                                                ; preds = %5
  store ptr @_ZL45ggml_backend_cpu_aarch64_buffer_type_get_nameP24ggml_backend_buffer_type, ptr @_ZZ36ggml_backend_cpu_aarch64_buffer_typevE36ggml_backend_cpu_buffer_type_aarch64, align 8, !tbaa !235
  store ptr @_ZL49ggml_backend_cpu_aarch64_buffer_type_alloc_bufferP24ggml_backend_buffer_typem, ptr getelementptr inbounds nuw (%struct.ggml_backend_buffer_type_i, ptr @_ZZ36ggml_backend_cpu_aarch64_buffer_typevE36ggml_backend_cpu_buffer_type_aarch64, i32 0, i32 1), align 8, !tbaa !237
  store ptr @_ZL50ggml_backend_cpu_aarch64_buffer_type_get_alignmentP24ggml_backend_buffer_type, ptr getelementptr inbounds nuw (%struct.ggml_backend_buffer_type_i, ptr @_ZZ36ggml_backend_cpu_aarch64_buffer_typevE36ggml_backend_cpu_buffer_type_aarch64, i32 0, i32 2), align 8, !tbaa !238
  store ptr null, ptr getelementptr inbounds nuw (%struct.ggml_backend_buffer_type_i, ptr @_ZZ36ggml_backend_cpu_aarch64_buffer_typevE36ggml_backend_cpu_buffer_type_aarch64, i32 0, i32 3), align 8, !tbaa !239
  store ptr null, ptr getelementptr inbounds nuw (%struct.ggml_backend_buffer_type_i, ptr @_ZZ36ggml_backend_cpu_aarch64_buffer_typevE36ggml_backend_cpu_buffer_type_aarch64, i32 0, i32 4), align 8, !tbaa !240
  store ptr null, ptr getelementptr inbounds nuw (%struct.ggml_backend_buffer_type_i, ptr @_ZZ36ggml_backend_cpu_aarch64_buffer_typevE36ggml_backend_cpu_buffer_type_aarch64, i32 0, i32 5), align 8, !tbaa !241
  %9 = invoke ptr @ggml_backend_cpu_reg()
          to label %10 unwind label %16

10:                                               ; preds = %8
  %11 = invoke ptr @ggml_backend_reg_dev_get(ptr noundef %9, i64 noundef 0)
          to label %12 unwind label %16

12:                                               ; preds = %10
  store ptr %11, ptr getelementptr inbounds nuw (%struct.ggml_backend_buffer_type, ptr @_ZZ36ggml_backend_cpu_aarch64_buffer_typevE36ggml_backend_cpu_buffer_type_aarch64, i32 0, i32 1), align 8, !tbaa !242
  %13 = invoke noalias noundef nonnull ptr @_Znwm(i64 noundef 8) #31
          to label %14 unwind label %16

14:                                               ; preds = %12
  call void @llvm.memset.p0.i64(ptr align 8 %13, i8 0, i64 8, i1 false)
  call void @_ZN4ggml3cpu7aarch6417extra_buffer_typeC2Ev(ptr noundef nonnull align 8 dereferenceable(8) %13) #23
  store ptr %13, ptr getelementptr inbounds nuw (%struct.ggml_backend_buffer_type, ptr @_ZZ36ggml_backend_cpu_aarch64_buffer_typevE36ggml_backend_cpu_buffer_type_aarch64, i32 0, i32 2), align 8, !tbaa !245
  call void @__cxa_guard_release(ptr @_ZGVZ36ggml_backend_cpu_aarch64_buffer_typevE36ggml_backend_cpu_buffer_type_aarch64) #23
  br label %15

15:                                               ; preds = %14, %5, %0
  ret ptr @_ZZ36ggml_backend_cpu_aarch64_buffer_typevE36ggml_backend_cpu_buffer_type_aarch64

16:                                               ; preds = %12, %10, %8
  %17 = landingpad { ptr, i32 }
          cleanup
  %18 = extractvalue { ptr, i32 } %17, 0
  store ptr %18, ptr %1, align 8
  %19 = extractvalue { ptr, i32 } %17, 1
  store i32 %19, ptr %2, align 4
  call void @__cxa_guard_abort(ptr @_ZGVZ36ggml_backend_cpu_aarch64_buffer_typevE36ggml_backend_cpu_buffer_type_aarch64) #23
  br label %20

20:                                               ; preds = %16
  %21 = load ptr, ptr %1, align 8
  %22 = load i32, ptr %2, align 4
  %23 = insertvalue { ptr, i32 } poison, ptr %21, 0
  %24 = insertvalue { ptr, i32 } %23, i32 %22, 1
  resume { ptr, i32 } %24
}