; Function Attrs: mustprogress uwtable
define noundef nonnull ptr @_Z36ggml_backend_cpu_aarch64_buffer_typev() local_unnamed_addr #0 personality ptr @__gxx_personality_v0 {
  %1 = load atomic i8, ptr @_ZGVZ36ggml_backend_cpu_aarch64_buffer_typevE36ggml_backend_cpu_buffer_type_aarch64 acquire, align 8
  %2 = icmp eq i8 %1, 0
  br i1 %2, label %3, label %12, !prof !387

3:                                                ; preds = %0
  %4 = tail call i32 @__cxa_guard_acquire(ptr nonnull @_ZGVZ36ggml_backend_cpu_aarch64_buffer_typevE36ggml_backend_cpu_buffer_type_aarch64) #23
  %.not = icmp eq i32 %4, 0
  br i1 %.not, label %12, label %5

5:                                                ; preds = %3
  store ptr @_ZL45ggml_backend_cpu_aarch64_buffer_type_get_nameP24ggml_backend_buffer_type, ptr @_ZZ36ggml_backend_cpu_aarch64_buffer_typevE36ggml_backend_cpu_buffer_type_aarch64, align 8, !tbaa !388
  store ptr @_ZL49ggml_backend_cpu_aarch64_buffer_type_alloc_bufferP24ggml_backend_buffer_typem, ptr getelementptr inbounds nuw (i8, ptr @_ZZ36ggml_backend_cpu_aarch64_buffer_typevE36ggml_backend_cpu_buffer_type_aarch64, i64 8), align 8, !tbaa !390
  store ptr @_ZL50ggml_backend_cpu_aarch64_buffer_type_get_alignmentP24ggml_backend_buffer_type, ptr getelementptr inbounds nuw (i8, ptr @_ZZ36ggml_backend_cpu_aarch64_buffer_typevE36ggml_backend_cpu_buffer_type_aarch64, i64 16), align 8, !tbaa !391
  tail call void @llvm.memset.p0.i64(ptr noundef nonnull align 8 dereferenceable(24) getelementptr inbounds nuw (i8, ptr @_ZZ36ggml_backend_cpu_aarch64_buffer_typevE36ggml_backend_cpu_buffer_type_aarch64, i64 24), i8 0, i64 24, i1 false)
  %6 = invoke ptr @ggml_backend_cpu_reg()
          to label %7 unwind label %13

7:                                                ; preds = %5
  %8 = invoke ptr @ggml_backend_reg_dev_get(ptr noundef %6, i64 noundef 0)
          to label %9 unwind label %13

9:                                                ; preds = %7
  store ptr %8, ptr getelementptr inbounds nuw (i8, ptr @_ZZ36ggml_backend_cpu_aarch64_buffer_typevE36ggml_backend_cpu_buffer_type_aarch64, i64 48), align 8, !tbaa !392
  %10 = invoke noalias noundef nonnull dereferenceable(8) ptr @_Znwm(i64 noundef 8) #25
          to label %11 unwind label %13

11:                                               ; preds = %9
  store ptr getelementptr inbounds nuw inrange(-16, 32) (i8, ptr @_ZTVN4ggml3cpu7aarch6417extra_buffer_typeE, i64 16), ptr %10, align 8, !tbaa !395
  store ptr %10, ptr getelementptr inbounds nuw (i8, ptr @_ZZ36ggml_backend_cpu_aarch64_buffer_typevE36ggml_backend_cpu_buffer_type_aarch64, i64 56), align 8, !tbaa !397
  tail call void @__cxa_guard_release(ptr nonnull @_ZGVZ36ggml_backend_cpu_aarch64_buffer_typevE36ggml_backend_cpu_buffer_type_aarch64) #23
  br label %12

12:                                               ; preds = %11, %3, %0
  ret ptr @_ZZ36ggml_backend_cpu_aarch64_buffer_typevE36ggml_backend_cpu_buffer_type_aarch64

13:                                               ; preds = %9, %7, %5
  %14 = landingpad { ptr, i32 }
          cleanup
  tail call void @__cxa_guard_abort(ptr nonnull @_ZGVZ36ggml_backend_cpu_aarch64_buffer_typevE36ggml_backend_cpu_buffer_type_aarch64) #23
  resume { ptr, i32 } %14
}